target datalayout = "e-m:e-p270:32:32-p271:32:32-p272:64:64-i64:64-i128:128-f80:128-n8:16:32:64-S128"
target triple = "x86_64-pc-linux-gnu"

%struct.LexState = type { ptr, ptr, %union.TValue, %union.TValue, ptr, ptr, i32, i32, i32, %struct.SBuf, ptr, ptr, i32, i32, ptr, ptr, ptr, ptr, i32, i32, ptr, i32, i32, i32, i32 }
%union.TValue = type { i64 }
%struct.SBuf = type { ptr, ptr, ptr, %struct.MRef }
%struct.MRef = type { i64 }
%struct.FuncState = type { ptr, ptr, ptr, ptr, ptr, i32, i32, i32, i32, i32, i32, i32, i32, ptr, i32, i32, i8, i8, i8, i8, [200 x i16], [60 x i16], [60 x i16] }
%struct.GCRef = type { i64 }
%struct.FuncScope = type { ptr, i32, i8, i8 }
%struct.BCInsLine = type { i32, i32 }
%struct.VarInfo = type { %struct.GCRef, i32, i32, i8, i8 }

; Function Attrs: nounwind uwtable
define internal void @jmp_patchins(ptr noundef %0, i32 noundef %1, i32 noundef %2) #0 {
  %4 = alloca ptr, align 8
  %5 = alloca i32, align 4
  %6 = alloca i32, align 4
  %7 = alloca ptr, align 8
  %8 = alloca i32, align 4
  store ptr %0, ptr %4, align 8, !tbaa !62
  store i32 %1, ptr %5, align 4, !tbaa !79
  store i32 %2, ptr %6, align 4, !tbaa !79
  call void @llvm.lifetime.start.p0(i64 8, ptr %7) #11
  %9 = load ptr, ptr %4, align 8, !tbaa !62
  %10 = getelementptr inbounds nuw %struct.FuncState, ptr %9, i32 0, i32 13
  %11 = load ptr, ptr %10, align 8, !tbaa !55
  %12 = load i32, ptr %5, align 4, !tbaa !79
  %13 = zext i32 %12 to i64
  %14 = getelementptr inbounds nuw %struct.BCInsLine, ptr %11, i64 %13
  %15 = getelementptr inbounds nuw %struct.BCInsLine, ptr %14, i32 0, i32 0
  store ptr %15, ptr %7, align 8, !tbaa !108
  call void @llvm.lifetime.start.p0(i64 4, ptr %8) #11
  %16 = load i32, ptr %6, align 4, !tbaa !79
  %17 = load i32, ptr %5, align 4, !tbaa !79
  %18 = add i32 %17, 1
  %19 = sub i32 %16, %18
  %20 = add i32 %19, 32768
  store i32 %20, ptr %8, align 4, !tbaa !79
  %21 = load i32, ptr %8, align 4, !tbaa !79
  %22 = icmp ugt i32 %21, 65535
  br i1 %22, label %23, label %27

23:                                               ; preds = %3
  %24 = load ptr, ptr %4, align 8, !tbaa !62
  %25 = getelementptr inbounds nuw %struct.FuncState, ptr %24, i32 0, i32 1
  %26 = load ptr, ptr %25, align 8, !tbaa !64
  call void @err_syntax(ptr noundef %26, i32 noundef 2399) #13
  unreachable

27:                                               ; preds = %3
  %28 = load i32, ptr %8, align 4, !tbaa !79
  %29 = trunc i32 %28 to i16
  %30 = load ptr, ptr %7, align 8, !tbaa !108
  %31 = getelementptr inbounds i16, ptr %30, i64 1
  store i16 %29, ptr %31, align 2, !tbaa !110
  call void @llvm.lifetime.end.p0(i64 4, ptr %8) #11
  call void @llvm.lifetime.end.p0(i64 8, ptr %7) #11
  ret void
}

; Function Attrs: nounwind uwtable
define internal i32 @jmp_next(ptr noundef %0, i32 noundef %1) #0 {
  %3 = alloca i32, align 4
  %4 = alloca ptr, align 8
  %5 = alloca i32, align 4
  %6 = alloca i64, align 8
  %7 = alloca i32, align 4
  store ptr %0, ptr %4, align 8, !tbaa !62
  store i32 %1, ptr %5, align 4, !tbaa !79
  call void @llvm.lifetime.start.p0(i64 8, ptr %6) #11
  %8 = load ptr, ptr %4, align 8, !tbaa !62
  %9 = getelementptr inbounds nuw %struct.FuncState, ptr %8, i32 0, i32 13
  %10 = load ptr, ptr %9, align 8, !tbaa !55
  %11 = load i32, ptr %5, align 4, !tbaa !79
  %12 = zext i32 %11 to i64
  %13 = getelementptr inbounds nuw %struct.BCInsLine, ptr %10, i64 %12
  %14 = getelementptr inbounds nuw %struct.BCInsLine, ptr %13, i32 0, i32 0
  %15 = load i32, ptr %14, align 4, !tbaa !87
  %16 = lshr i32 %15, 16
  %17 = zext i32 %16 to i64
  %18 = sub nsw i64 %17, 32768
  store i64 %18, ptr %6, align 8, !tbaa !11
  %19 = load i64, ptr %6, align 8, !tbaa !11
  %20 = trunc i64 %19 to i32
  %21 = icmp eq i32 %20, -1
  br i1 %21, label %22, label %23

22:                                               ; preds = %2
  store i32 -1, ptr %3, align 4
  store i32 1, ptr %7, align 4
  br label %30

23:                                               ; preds = %2
  %24 = load i32, ptr %5, align 4, !tbaa !79
  %25 = zext i32 %24 to i64
  %26 = add nsw i64 %25, 1
  %27 = load i64, ptr %6, align 8, !tbaa !11
  %28 = add nsw i64 %26, %27
  %29 = trunc i64 %28 to i32
  store i32 %29, ptr %3, align 4
  store i32 1, ptr %7, align 4
  br label %30

30:                                               ; preds = %23, %22
  call void @llvm.lifetime.end.p0(i64 8, ptr %6) #11
  %31 = load i32, ptr %3, align 4
  ret i32 %31
}

; Function Attrs: nounwind uwtable
define internal void @jmp_append(ptr noundef %0, ptr noundef %1, i32 noundef %2) #0 {
  %4 = alloca ptr, align 8
  %5 = alloca ptr, align 8
  %6 = alloca i32, align 4
  %7 = alloca i32, align 4
  %8 = alloca i32, align 4
  store ptr %0, ptr %4, align 8, !tbaa !62
  store ptr %1, ptr %5, align 8, !tbaa !108
  store i32 %2, ptr %6, align 4, !tbaa !79
  %9 = load i32, ptr %6, align 4, !tbaa !79
  %10 = icmp eq i32 %9, -1
  br i1 %10, label %11, label %12

11:                                               ; preds = %3
  br label %34

12:                                               ; preds = %3
  %13 = load ptr, ptr %5, align 8, !tbaa !108
  %14 = load i32, ptr %13, align 4, !tbaa !79
  %15 = icmp eq i32 %14, -1
  br i1 %15, label %16, label %19

16:                                               ; preds = %12
  %17 = load i32, ptr %6, align 4, !tbaa !79
  %18 = load ptr, ptr %5, align 8, !tbaa !108
  store i32 %17, ptr %18, align 4, !tbaa !79
  br label %33

19:                                               ; preds = %12
  call void @llvm.lifetime.start.p0(i64 4, ptr %7) #11
  %20 = load ptr, ptr %5, align 8, !tbaa !108
  %21 = load i32, ptr %20, align 4, !tbaa !79
  store i32 %21, ptr %7, align 4, !tbaa !79
  call void @llvm.lifetime.start.p0(i64 4, ptr %8) #11
  br label %22

22:                                               ; preds = %27, %19
  %23 = load ptr, ptr %4, align 8, !tbaa !62
  %24 = load i32, ptr %7, align 4, !tbaa !79
  %25 = call i32 @jmp_next(ptr noundef %23, i32 noundef %24)
  store i32 %25, ptr %8, align 4, !tbaa !79
  %26 = icmp ne i32 %25, -1
  br i1 %26, label %27, label %29

27:                                               ; preds = %22
  %28 = load i32, ptr %8, align 4, !tbaa !79
  store i32 %28, ptr %7, align 4, !tbaa !79
  br label %22, !llvm.loop !125

29:                                               ; preds = %22
  %30 = load ptr, ptr %4, align 8, !tbaa !62
  %31 = load i32, ptr %7, align 4, !tbaa !79
  %32 = load i32, ptr %6, align 4, !tbaa !79
  call void @jmp_patchins(ptr noundef %30, i32 noundef %31, i32 noundef %32)
  call void @llvm.lifetime.end.p0(i64 4, ptr %8) #11
  call void @llvm.lifetime.end.p0(i64 4, ptr %7) #11
  br label %33

33:                                               ; preds = %29, %16
  br label %34

34:                                               ; preds = %11, %33
  ret void
}

; Function Attrs: nounwind uwtable
define internal i32 @gola_new(ptr noundef %0, ptr noundef %1, i8 noundef zeroext %2, i32 noundef %3) #0 {
  %5 = alloca ptr, align 8
  %6 = alloca ptr, align 8
  %7 = alloca i8, align 1
  %8 = alloca i32, align 4
  %9 = alloca ptr, align 8
  %10 = alloca i32, align 4
  store ptr %0, ptr %5, align 8, !tbaa !4
  store ptr %1, ptr %6, align 8, !tbaa !24
  store i8 %2, ptr %7, align 1, !tbaa !32
  store i32 %3, ptr %8, align 4, !tbaa !79
  call void @llvm.lifetime.start.p0(i64 8, ptr %9) #11
  %11 = load ptr, ptr %5, align 8, !tbaa !4
  %12 = getelementptr inbounds nuw %struct.LexState, ptr %11, i32 0, i32 0
  %13 = load ptr, ptr %12, align 8, !tbaa !25
  store ptr %13, ptr %9, align 8, !tbaa !62
  call void @llvm.lifetime.start.p0(i64 4, ptr %10) #11
  %14 = load ptr, ptr %5, align 8, !tbaa !4
  %15 = getelementptr inbounds nuw %struct.LexState, ptr %14, i32 0, i32 19
  %16 = load i32, ptr %15, align 4, !tbaa !65
  store i32 %16, ptr %10, align 4, !tbaa !79
  %17 = load i32, ptr %10, align 4, !tbaa !79
  %18 = load ptr, ptr %5, align 8, !tbaa !4
  %19 = getelementptr inbounds nuw %struct.LexState, ptr %18, i32 0, i32 18
  %20 = load i32, ptr %19, align 8, !tbaa !158
  %21 = icmp uge i32 %17, %20
  %22 = xor i1 %21, true
  %23 = xor i1 %22, true
  %24 = zext i1 %23 to i32
  %25 = sext i32 %24 to i64
  %26 = call i64 @llvm.expect.i64(i64 %25, i64 0)
  %27 = icmp ne i64 %26, 0
  br i1 %27, label %28, label %47

28:                                               ; preds = %4
  %29 = load ptr, ptr %5, align 8, !tbaa !4
  %30 = getelementptr inbounds nuw %struct.LexState, ptr %29, i32 0, i32 18
  %31 = load i32, ptr %30, align 8, !tbaa !158
  %32 = icmp uge i32 %31, 65476
  br i1 %32, label %33, label %35

33:                                               ; preds = %28
  %34 = load ptr, ptr %5, align 8, !tbaa !4
  call void (ptr, i32, i32, ...) @lj_lex_error(ptr noundef %34, i32 noundef 0, i32 noundef 2461, i32 noundef 65476) #13
  unreachable

35:                                               ; preds = %28
  %36 = load ptr, ptr %5, align 8, !tbaa !4
  %37 = getelementptr inbounds nuw %struct.LexState, ptr %36, i32 0, i32 1
  %38 = load ptr, ptr %37, align 8, !tbaa !13
  %39 = load ptr, ptr %5, align 8, !tbaa !4
  %40 = getelementptr inbounds nuw %struct.LexState, ptr %39, i32 0, i32 17
  %41 = load ptr, ptr %40, align 8, !tbaa !113
  %42 = load ptr, ptr %5, align 8, !tbaa !4
  %43 = getelementptr inbounds nuw %struct.LexState, ptr %42, i32 0, i32 18
  %44 = call ptr @lj_mem_grow(ptr noundef %38, ptr noundef %41, ptr noundef %43, i32 noundef 65476, i32 noundef 24)
  %45 = load ptr, ptr %5, align 8, !tbaa !4
  %46 = getelementptr inbounds nuw %struct.LexState, ptr %45, i32 0, i32 17
  store ptr %44, ptr %46, align 8, !tbaa !113
  br label %47

47:                                               ; preds = %35, %4
  %48 = load ptr, ptr %6, align 8, !tbaa !24
  %49 = ptrtoint ptr %48 to i64
  %50 = load ptr, ptr %5, align 8, !tbaa !4
  %51 = getelementptr inbounds nuw %struct.LexState, ptr %50, i32 0, i32 17
  %52 = load ptr, ptr %51, align 8, !tbaa !113
  %53 = load i32, ptr %10, align 4, !tbaa !79
  %54 = zext i32 %53 to i64
  %55 = getelementptr inbounds nuw %struct.VarInfo, ptr %52, i64 %54
  %56 = getelementptr inbounds nuw %struct.VarInfo, ptr %55, i32 0, i32 0
  %57 = getelementptr inbounds nuw %struct.GCRef, ptr %56, i32 0, i32 0
  store i64 %49, ptr %57, align 8, !tbaa !159
  %58 = load i32, ptr %8, align 4, !tbaa !79
  %59 = load ptr, ptr %5, align 8, !tbaa !4
  %60 = getelementptr inbounds nuw %struct.LexState, ptr %59, i32 0, i32 17
  %61 = load ptr, ptr %60, align 8, !tbaa !113
  %62 = load i32, ptr %10, align 4, !tbaa !79
  %63 = zext i32 %62 to i64
  %64 = getelementptr inbounds nuw %struct.VarInfo, ptr %61, i64 %63
  %65 = getelementptr inbounds nuw %struct.VarInfo, ptr %64, i32 0, i32 1
  store i32 %58, ptr %65, align 8, !tbaa !114
  %66 = load ptr, ptr %9, align 8, !tbaa !62
  %67 = getelementptr inbounds nuw %struct.FuncState, ptr %66, i32 0, i32 9
  %68 = load i32, ptr %67, align 8, !tbaa !74
  %69 = trunc i32 %68 to i8
  %70 = load ptr, ptr %5, align 8, !tbaa !4
  %71 = getelementptr inbounds nuw %struct.LexState, ptr %70, i32 0, i32 17
  %72 = load ptr, ptr %71, align 8, !tbaa !113
  %73 = load i32, ptr %10, align 4, !tbaa !79
  %74 = zext i32 %73 to i64
  %75 = getelementptr inbounds nuw %struct.VarInfo, ptr %72, i64 %74
  %76 = getelementptr inbounds nuw %struct.VarInfo, ptr %75, i32 0, i32 3
  store i8 %69, ptr %76, align 8, !tbaa !119
  %77 = load i8, ptr %7, align 1, !tbaa !32
  %78 = load ptr, ptr %5, align 8, !tbaa !4
  %79 = getelementptr inbounds nuw %struct.LexState, ptr %78, i32 0, i32 17
  %80 = load ptr, ptr %79, align 8, !tbaa !113
  %81 = load i32, ptr %10, align 4, !tbaa !79
  %82 = zext i32 %81 to i64
  %83 = getelementptr inbounds nuw %struct.VarInfo, ptr %80, i64 %82
  %84 = getelementptr inbounds nuw %struct.VarInfo, ptr %83, i32 0, i32 4
  store i8 %77, ptr %84, align 1, !tbaa !155
  %85 = load i32, ptr %10, align 4, !tbaa !79
  %86 = add i32 %85, 1
  %87 = load ptr, ptr %5, align 8, !tbaa !4
  %88 = getelementptr inbounds nuw %struct.LexState, ptr %87, i32 0, i32 19
  store i32 %86, ptr %88, align 4, !tbaa !65
  %89 = load i32, ptr %10, align 4, !tbaa !79
  call void @llvm.lifetime.end.p0(i64 4, ptr %10) #11
  call void @llvm.lifetime.end.p0(i64 8, ptr %9) #11
  ret i32 %89
}

; Function Attrs: nounwind uwtable
define internal i32 @bcemit_jmp(ptr noundef %0) #0 {
  %2 = alloca ptr, align 8
  %3 = alloca i32, align 4
  %4 = alloca i32, align 4
  %5 = alloca ptr, align 8
  store ptr %0, ptr %2, align 8, !tbaa !62
  call void @llvm.lifetime.start.p0(i64 4, ptr %3) #11
  %6 = load ptr, ptr %2, align 8, !tbaa !62
  %7 = getelementptr inbounds nuw %struct.FuncState, ptr %6, i32 0, i32 7
  %8 = load i32, ptr %7, align 8, !tbaa !70
  store i32 %8, ptr %3, align 4, !tbaa !79
  call void @llvm.lifetime.start.p0(i64 4, ptr %4) #11
  %9 = load ptr, ptr %2, align 8, !tbaa !62
  %10 = getelementptr inbounds nuw %struct.FuncState, ptr %9, i32 0, i32 5
  %11 = load i32, ptr %10, align 8, !tbaa !68
  %12 = sub i32 %11, 1
  store i32 %12, ptr %4, align 4, !tbaa !79
  call void @llvm.lifetime.start.p0(i64 8, ptr %5) #11
  %13 = load ptr, ptr %2, align 8, !tbaa !62
  %14 = getelementptr inbounds nuw %struct.FuncState, ptr %13, i32 0, i32 13
  %15 = load ptr, ptr %14, align 8, !tbaa !55
  %16 = load i32, ptr %4, align 4, !tbaa !79
  %17 = zext i32 %16 to i64
  %18 = getelementptr inbounds nuw %struct.BCInsLine, ptr %15, i64 %17
  %19 = getelementptr inbounds nuw %struct.BCInsLine, ptr %18, i32 0, i32 0
  store ptr %19, ptr %5, align 8, !tbaa !108
  %20 = load ptr, ptr %2, align 8, !tbaa !62
  %21 = getelementptr inbounds nuw %struct.FuncState, ptr %20, i32 0, i32 7
  store i32 -1, ptr %21, align 8, !tbaa !70
  %22 = load i32, ptr %4, align 4, !tbaa !79
  %23 = load ptr, ptr %2, align 8, !tbaa !62
  %24 = getelementptr inbounds nuw %struct.FuncState, ptr %23, i32 0, i32 6
  %25 = load i32, ptr %24, align 4, !tbaa !69
  %26 = icmp sge i32 %22, %25
  br i1 %26, label %27, label %39

27:                                               ; preds = %1
  %28 = load ptr, ptr %5, align 8, !tbaa !108
  %29 = load i32, ptr %28, align 4, !tbaa !79
  %30 = and i32 %29, 255
  %31 = icmp eq i32 %30, 50
  br i1 %31, label %32, label %39

32:                                               ; preds = %27
  %33 = load ptr, ptr %5, align 8, !tbaa !108
  %34 = getelementptr inbounds i16, ptr %33, i64 1
  store i16 32767, ptr %34, align 2, !tbaa !110
  %35 = load i32, ptr %4, align 4, !tbaa !79
  %36 = add i32 %35, 1
  %37 = load ptr, ptr %2, align 8, !tbaa !62
  %38 = getelementptr inbounds nuw %struct.FuncState, ptr %37, i32 0, i32 6
  store i32 %36, ptr %38, align 4, !tbaa !69
  br label %48

39:                                               ; preds = %27, %1
  %40 = load ptr, ptr %2, align 8, !tbaa !62
  %41 = load ptr, ptr %2, align 8, !tbaa !62
  %42 = getelementptr inbounds nuw %struct.FuncState, ptr %41, i32 0, i32 8
  %43 = load i32, ptr %42, align 4, !tbaa !71
  %44 = shl i32 %43, 8
  %45 = or i32 88, %44
  %46 = or i32 %45, 2147418112
  %47 = call i32 @bcemit_INS(ptr noundef %40, i32 noundef %46)
  store i32 %47, ptr %4, align 4, !tbaa !79
  br label %48

48:                                               ; preds = %39, %32
  %49 = load ptr, ptr %2, align 8, !tbaa !62
  %50 = load i32, ptr %3, align 4, !tbaa !79
  call void @jmp_append(ptr noundef %49, ptr noundef %4, i32 noundef %50)
  %51 = load i32, ptr %4, align 4, !tbaa !79
  call void @llvm.lifetime.end.p0(i64 8, ptr %5) #11
  call void @llvm.lifetime.end.p0(i64 4, ptr %4) #11
  call void @llvm.lifetime.end.p0(i64 4, ptr %3) #11
  ret i32 %51
}

; Function Attrs: nounwind uwtable
define internal void @parse_break(ptr noundef %0) #0 {
  %2 = alloca ptr, align 8
  store ptr %0, ptr %2, align 8, !tbaa !4
  %3 = load ptr, ptr %2, align 8, !tbaa !4
  %4 = getelementptr inbounds nuw %struct.LexState, ptr %3, i32 0, i32 0
  %5 = load ptr, ptr %4, align 8, !tbaa !25
  %6 = getelementptr inbounds nuw %struct.FuncState, ptr %5, i32 0, i32 3
  %7 = load ptr, ptr %6, align 8, !tbaa !76
  %8 = getelementptr inbounds nuw %struct.FuncScope, ptr %7, i32 0, i32 3
  %9 = load i8, ptr %8, align 1, !tbaa !82
  %10 = zext i8 %9 to i32
  %11 = or i32 %10, 2
  %12 = trunc i32 %11 to i8
  store i8 %12, ptr %8, align 1, !tbaa !82
  %13 = load ptr, ptr %2, align 8, !tbaa !4
  %14 = load ptr, ptr %2, align 8, !tbaa !4
  %15 = getelementptr inbounds nuw %struct.LexState, ptr %14, i32 0, i32 0
  %16 = load ptr, ptr %15, align 8, !tbaa !25
  %17 = call i32 @bcemit_jmp(ptr noundef %16)
  %18 = call i32 @gola_new(ptr noundef %13, ptr noundef inttoptr (i64 1 to ptr), i8 noundef zeroext 2, i32 noundef %17)
  ret void
}