; Function Attrs: nounwind uwtable
define internal fastcc void @parse_break(ptr noundef %0) unnamed_addr #0 {
  %2 = load ptr, ptr %0, align 8, !tbaa !19
  %3 = getelementptr inbounds nuw i8, ptr %2, i64 24
  %4 = load ptr, ptr %3, align 8, !tbaa !55
  %5 = getelementptr inbounds nuw i8, ptr %4, i64 13
  %6 = load i8, ptr %5, align 1, !tbaa !62
  %7 = or i8 %6, 2
  store i8 %7, ptr %5, align 1, !tbaa !62
  %8 = getelementptr inbounds nuw i8, ptr %2, i64 48
  %9 = load i32, ptr %8, align 8, !tbaa !53
  %10 = getelementptr inbounds nuw i8, ptr %2, i64 40
  %11 = load i32, ptr %10, align 8, !tbaa !51
  %12 = add i32 %11, -1
  %13 = getelementptr inbounds nuw i8, ptr %2, i64 72
  %14 = load ptr, ptr %13, align 8, !tbaa !67
  %15 = zext i32 %12 to i64
  %16 = getelementptr inbounds nuw %struct.BCInsLine, ptr %14, i64 %15
  store i32 -1, ptr %8, align 8, !tbaa !53
  %17 = getelementptr inbounds nuw i8, ptr %2, i64 44
  %18 = load i32, ptr %17, align 4, !tbaa !52
  %.not.i = icmp slt i32 %12, %18
  br i1 %.not.i, label %25, label %19

19:                                               ; preds = %1
  %20 = load i32, ptr %16, align 4, !tbaa !82
  %21 = and i32 %20, 255
  %22 = icmp eq i32 %21, 50
  br i1 %22, label %23, label %25

23:                                               ; preds = %19
  %24 = getelementptr inbounds nuw i8, ptr %16, i64 2
  store i16 32767, ptr %24, align 2, !tbaa !70
  store i32 %11, ptr %17, align 4, !tbaa !52
  br label %31

25:                                               ; preds = %19, %1
  %26 = getelementptr inbounds nuw i8, ptr %2, i64 52
  %27 = load i32, ptr %26, align 4, !tbaa !83
  %28 = shl i32 %27, 8
  %29 = or i32 %28, 2147418200
  %30 = tail call fastcc i32 @bcemit_INS(ptr noundef nonnull %2, i32 noundef %29)
  br label %31

31:                                               ; preds = %25, %23
  %.0.i = phi i32 [ %30, %25 ], [ %12, %23 ]
  %32 = icmp eq i32 %9, -1
  br i1 %32, label %bcemit_jmp.exit, label %33

33:                                               ; preds = %31
  %34 = icmp eq i32 %.0.i, -1
  br i1 %34, label %bcemit_jmp.exit, label %.preheader.i.i

.preheader.i.i:                                   ; preds = %33
  %.val.i.i = load ptr, ptr %13, align 8, !tbaa !67
  br label %35

35:                                               ; preds = %35, %.preheader.i.i
  %.0.i.i = phi i32 [ %45, %35 ], [ %.0.i, %.preheader.i.i ]
  %36 = zext i32 %.0.i.i to i64
  %37 = getelementptr inbounds nuw %struct.BCInsLine, ptr %.val.i.i, i64 %36
  %38 = load i32, ptr %37, align 4, !tbaa !68
  %39 = lshr i32 %38, 16
  %40 = zext nneg i32 %39 to i64
  %41 = add nsw i64 %40, -32768
  %42 = icmp eq i64 %41, -1
  %43 = add nuw nsw i64 %36, 1
  %44 = add nsw i64 %43, %41
  %45 = trunc i64 %44 to i32
  %.not13.i.i = icmp eq i32 %45, -1
  %.not.i.i = select i1 %42, i1 true, i1 %.not13.i.i
  br i1 %.not.i.i, label %46, label %35, !llvm.loop !84

46:                                               ; preds = %35
  %reass.sub.i.i.i = sub i32 %9, %.0.i.i
  %47 = add i32 %reass.sub.i.i.i, 32767
  %48 = icmp ugt i32 %47, 65535
  br i1 %48, label %49, label %jmp_patchins.exit.i.i

49:                                               ; preds = %46
  %50 = getelementptr inbounds nuw i8, ptr %2, i64 8
  %51 = load ptr, ptr %50, align 8, !tbaa !47
  tail call fastcc void @err_syntax(ptr noundef %51, i32 noundef 2399) #13
  unreachable

jmp_patchins.exit.i.i:                            ; preds = %46
  %52 = getelementptr inbounds nuw %struct.BCInsLine, ptr %.val.i.i, i64 %36
  %53 = trunc nuw i32 %47 to i16
  %54 = getelementptr inbounds nuw i8, ptr %52, i64 2
  store i16 %53, ptr %54, align 2, !tbaa !70
  br label %bcemit_jmp.exit

bcemit_jmp.exit:                                  ; preds = %31, %33, %jmp_patchins.exit.i.i
  %.1.i = phi i32 [ %.0.i, %31 ], [ %.0.i, %jmp_patchins.exit.i.i ], [ %9, %33 ]
  %55 = load ptr, ptr %0, align 8, !tbaa !19
  %56 = getelementptr inbounds nuw i8, ptr %0, i64 156
  %57 = load i32, ptr %56, align 4, !tbaa !48
  %58 = getelementptr inbounds nuw i8, ptr %0, i64 152
  %59 = load i32, ptr %58, align 8, !tbaa !86
  %.not.i3 = icmp ult i32 %57, %59
  br i1 %.not.i3, label %._crit_edge.i, label %60, !prof !40

._crit_edge.i:                                    ; preds = %bcemit_jmp.exit
  %.phi.trans.insert.i = getelementptr inbounds nuw i8, ptr %0, i64 144
  %.pre.i = load ptr, ptr %.phi.trans.insert.i, align 8, !tbaa !87
  br label %gola_new.exit

60:                                               ; preds = %bcemit_jmp.exit
  %61 = icmp ugt i32 %59, 65475
  br i1 %61, label %62, label %63

62:                                               ; preds = %60
  tail call void (ptr, i32, i32, ...) @lj_lex_error(ptr noundef nonnull %0, i32 noundef 0, i32 noundef 2461, i32 noundef 65476) #14
  unreachable

63:                                               ; preds = %60
  %64 = getelementptr inbounds nuw i8, ptr %0, i64 8
  %65 = load ptr, ptr %64, align 8, !tbaa !4
  %66 = getelementptr inbounds nuw i8, ptr %0, i64 144
  %67 = load ptr, ptr %66, align 8, !tbaa !87
  %68 = tail call ptr @lj_mem_grow(ptr noundef %65, ptr noundef %67, ptr noundef nonnull %58, i32 noundef 65476, i32 noundef 24) #11
  store ptr %68, ptr %66, align 8, !tbaa !87
  br label %gola_new.exit

gola_new.exit:                                    ; preds = %._crit_edge.i, %63
  %69 = phi ptr [ %.pre.i, %._crit_edge.i ], [ %68, %63 ]
  %70 = zext i32 %57 to i64
  %71 = getelementptr inbounds nuw %struct.VarInfo, ptr %69, i64 %70
  store i64 1, ptr %71, align 8, !tbaa !88
  %72 = getelementptr inbounds nuw %struct.VarInfo, ptr %69, i64 %70, i32 1
  store i32 %.1.i, ptr %72, align 8, !tbaa !90
  %73 = getelementptr inbounds nuw i8, ptr %55, i64 56
  %74 = load i32, ptr %73, align 8, !tbaa !59
  %75 = trunc i32 %74 to i8
  %76 = getelementptr inbounds nuw %struct.VarInfo, ptr %69, i64 %70, i32 3
  store i8 %75, ptr %76, align 8, !tbaa !91
  %77 = getelementptr inbounds nuw %struct.VarInfo, ptr %69, i64 %70, i32 4
  store i8 2, ptr %77, align 1, !tbaa !92
  %78 = add i32 %57, 1
  store i32 %78, ptr %56, align 4, !tbaa !48
  ret void
}